; Function Attrs: mustprogress uwtable
define hidden void @_ZN15prime_generator8finalizeEv(ptr noundef nonnull align 8 captures(none) dereferenceable(8) %0) local_unnamed_addr #3 align 2 {
  %2 = load ptr, ptr %0, align 8, !tbaa !3
  %.not.i.i = icmp eq ptr %2, null
  br i1 %.not.i.i, label %_ZN6vectorImLb0EjE8finalizeEv.exit, label %3

3:                                                ; preds = %1
  %4 = getelementptr inbounds i8, ptr %2, i64 -8
  tail call void @_ZN6memory10deallocateEPv(ptr noundef nonnull %4)
  br label %_ZN6vectorImLb0EjE8finalizeEv.exit

_ZN6vectorImLb0EjE8finalizeEv.exit:               ; preds = %1, %3
  store ptr null, ptr %0, align 8, !tbaa !3
  ret void
}